; Function Attrs: mustprogress ssp uwtable
define noundef nonnull align 8 dereferenceable(32) ptr @_ZN6open3d7utility11StripStringERNSt7__cxx1112basic_stringIcSt11char_traitsIcESaIcEEERKS6_(ptr noundef nonnull returned align 8 dereferenceable(32) %0, ptr noundef nonnull readonly align 8 captures(none) dereferenceable(32) %1) local_unnamed_addr #0 personality ptr @__gxx_personality_v0 {
  %3 = load ptr, ptr %1, align 8, !tbaa !4
  %4 = getelementptr inbounds nuw i8, ptr %1, i64 8
  %5 = load i64, ptr %4, align 8, !tbaa !12
  %6 = tail call noundef i64 @_ZNKSt7__cxx1112basic_stringIcSt11char_traitsIcESaIcEE16find_last_not_ofEPKcmm(ptr noundef nonnull align 8 dereferenceable(32) %0, ptr noundef %3, i64 noundef -1, i64 noundef %5) #30
  %7 = add i64 %6, 1
  %8 = getelementptr inbounds nuw i8, ptr %0, i64 8
  %9 = load i64, ptr %8, align 8, !tbaa !12
  %10 = icmp ugt i64 %7, %9
  br i1 %10, label %11, label %_ZN6open3d7utility16RightStripStringERNSt7__cxx1112basic_stringIcSt11char_traitsIcESaIcEEERKS6_.exit

11:                                               ; preds = %2
  tail call void (ptr, ...) @_ZSt24__throw_out_of_range_fmtPKcz(ptr noundef nonnull @.str.2, ptr noundef nonnull @.str.6, i64 noundef %7, i64 noundef %9) #31
  unreachable

_ZN6open3d7utility16RightStripStringERNSt7__cxx1112basic_stringIcSt11char_traitsIcESaIcEEERKS6_.exit: ; preds = %2
  store i64 %7, ptr %8, align 8, !tbaa !12
  %12 = load ptr, ptr %0, align 8, !tbaa !4
  %13 = getelementptr inbounds nuw i8, ptr %12, i64 %7
  store i8 0, ptr %13, align 1, !tbaa !18
  %14 = load ptr, ptr %1, align 8, !tbaa !4
  %15 = load i64, ptr %4, align 8, !tbaa !12
  %16 = tail call noundef i64 @_ZNKSt7__cxx1112basic_stringIcSt11char_traitsIcESaIcEE17find_first_not_ofEPKcmm(ptr noundef nonnull align 8 dereferenceable(32) %0, ptr noundef %14, i64 noundef 0, i64 noundef %15) #30
  switch i64 %16, label %19 [
    i64 -1, label %17
    i64 0, label %_ZN6open3d7utility15LeftStripStringERNSt7__cxx1112basic_stringIcSt11char_traitsIcESaIcEEERKS6_.exit
  ]

17:                                               ; preds = %_ZN6open3d7utility16RightStripStringERNSt7__cxx1112basic_stringIcSt11char_traitsIcESaIcEEERKS6_.exit
  store i64 0, ptr %8, align 8, !tbaa !12
  %18 = load ptr, ptr %0, align 8, !tbaa !4
  store i8 0, ptr %18, align 1, !tbaa !18
  br label %_ZN6open3d7utility15LeftStripStringERNSt7__cxx1112basic_stringIcSt11char_traitsIcESaIcEEERKS6_.exit

19:                                               ; preds = %_ZN6open3d7utility16RightStripStringERNSt7__cxx1112basic_stringIcSt11char_traitsIcESaIcEEERKS6_.exit
  %20 = load i64, ptr %8, align 8, !tbaa !12
  %spec.select.i.i.i = tail call noundef i64 @llvm.umin.i64(i64 %16, i64 %20)
  tail call void @_ZNSt7__cxx1112basic_stringIcSt11char_traitsIcESaIcEE8_M_eraseEmm(ptr noundef nonnull align 8 dereferenceable(32) %0, i64 noundef 0, i64 noundef %spec.select.i.i.i)
  br label %_ZN6open3d7utility15LeftStripStringERNSt7__cxx1112basic_stringIcSt11char_traitsIcESaIcEEERKS6_.exit

_ZN6open3d7utility15LeftStripStringERNSt7__cxx1112basic_stringIcSt11char_traitsIcESaIcEEERKS6_.exit: ; preds = %_ZN6open3d7utility16RightStripStringERNSt7__cxx1112basic_stringIcSt11char_traitsIcESaIcEEERKS6_.exit, %17, %19
  ret ptr %0
}